target datalayout = "e-m:e-p270:32:32-p271:32:32-p272:64:64-i64:64-i128:128-f80:128-n8:16:32:64-S128"
target triple = "x86_64-pc-linux-gnu"

%union.pthread_mutex_t = type { %struct.__pthread_mutex_s }
%struct.__pthread_mutex_s = type { i32, i32, i32, i32, i32, i16, i16, %struct.__pthread_internal_list }
%struct.__pthread_internal_list = type { ptr, ptr }
%struct.acct_gather_profile_timer_t = type { i32, i64, %union.pthread_cond_t, %union.pthread_mutex_t }
%union.pthread_cond_t = type { %struct.__pthread_cond_s }
%struct.__pthread_cond_s = type { %union.__atomic_wide_counter, %union.__atomic_wide_counter, [2 x i32], [2 x i32], i32, i32, [2 x i32] }
%union.__atomic_wide_counter = type { i64 }
%struct.plugin_context_t = type { ptr, ptr, ptr }

@g_context_lock = internal global %union.pthread_mutex_t zeroinitializer, align 8
@.str.1 = private unnamed_addr constant [29 x i8] c"%s: pthread_mutex_lock(): %m\00", align 1
@g_context_num = internal global i32 -1, align 4
@ops = internal global ptr null, align 8
@.str.3 = private unnamed_addr constant [21 x i8] c"acct_gather_energy.c\00", align 1
@g_context = internal global ptr null, align 8
@init_run = internal global i8 0, align 1
@.str.7 = private unnamed_addr constant [31 x i8] c"%s: pthread_mutex_unlock(): %m\00", align 1
@__func__.acct_gather_energy_fini = private unnamed_addr constant [24 x i8] c"acct_gather_energy_fini\00", align 1
@watch_node_thread_id = internal global i64 0, align 8
@profile_timer = internal global ptr @acct_gather_profile_timer, align 8
@.str.9 = private unnamed_addr constant [36 x i8] c"%s:%d %s: pthread_cond_signal(): %m\00", align 1
@.str.10 = private unnamed_addr constant [23 x i8] c"%s: pthread_join(): %m\00", align 1
@.str.11 = private unnamed_addr constant [11 x i8] c"%s: %s: %s\00", align 1

; Function Attrs: nounwind uwtable
define dso_local i32 @acct_gather_energy_fini() #0 {
  %1 = alloca i32, align 4
  %2 = alloca i32, align 4
  %3 = alloca i32, align 4
  %4 = alloca i32, align 4
  %5 = alloca i32, align 4
  %6 = alloca i32, align 4
  %7 = alloca i32, align 4
  %8 = alloca i32, align 4
  %9 = alloca i32, align 4
  %10 = alloca i32, align 4
  %11 = alloca i32, align 4
  %12 = alloca i32, align 4
  %13 = alloca i32, align 4
  %14 = alloca i32, align 4
  call void @llvm.lifetime.start.p0(i64 4, ptr %2) #7
  call void @llvm.lifetime.start.p0(i64 4, ptr %3) #7
  store i32 0, ptr %3, align 4
  br label %15

15:                                               ; preds = %0
  call void @llvm.lifetime.start.p0(i64 4, ptr %4) #7
  %16 = call i32 @pthread_mutex_lock(ptr noundef @g_context_lock) #7
  store i32 %16, ptr %4, align 4
  %17 = load i32, ptr %4, align 4
  %18 = icmp ne i32 %17, 0
  br i1 %18, label %19, label %22

19:                                               ; preds = %15
  %20 = load i32, ptr %4, align 4
  %21 = call ptr @__errno_location() #8
  store i32 %20, ptr %21, align 4
  call void (ptr, ...) @fatal_abort(ptr noundef @.str.1, ptr noundef @__func__.acct_gather_energy_fini) #9
  unreachable

22:                                               ; preds = %15
  call void @llvm.lifetime.end.p0(i64 4, ptr %4) #7
  br label %23

23:                                               ; preds = %22
  br label %24

24:                                               ; preds = %23
  %25 = load i8, ptr @init_run, align 1, !range !11, !noundef !12
  %26 = trunc i8 %25 to i1
  br i1 %26, label %38, label %27

27:                                               ; preds = %24
  br label %28

28:                                               ; preds = %27
  call void @llvm.lifetime.start.p0(i64 4, ptr %5) #7
  %29 = call i32 @pthread_mutex_unlock(ptr noundef @g_context_lock) #7
  store i32 %29, ptr %5, align 4
  %30 = load i32, ptr %5, align 4
  %31 = icmp ne i32 %30, 0
  br i1 %31, label %32, label %35

32:                                               ; preds = %28
  %33 = load i32, ptr %5, align 4
  %34 = call ptr @__errno_location() #8
  store i32 %33, ptr %34, align 4
  call void (ptr, ...) @fatal_abort(ptr noundef @.str.7, ptr noundef @__func__.acct_gather_energy_fini) #9
  unreachable

35:                                               ; preds = %28
  call void @llvm.lifetime.end.p0(i64 4, ptr %5) #7
  br label %36

36:                                               ; preds = %35
  br label %37

37:                                               ; preds = %36
  store i32 0, ptr %1, align 4
  store i32 1, ptr %6, align 4
  br label %174

38:                                               ; preds = %24
  store i8 0, ptr @init_run, align 1
  %39 = load i64, ptr @watch_node_thread_id, align 8
  %40 = icmp ne i64 %39, 0
  br i1 %40, label %41, label %115

41:                                               ; preds = %38
  br label %42

42:                                               ; preds = %41
  call void @llvm.lifetime.start.p0(i64 4, ptr %7) #7
  %43 = call i32 @pthread_mutex_unlock(ptr noundef @g_context_lock) #7
  store i32 %43, ptr %7, align 4
  %44 = load i32, ptr %7, align 4
  %45 = icmp ne i32 %44, 0
  br i1 %45, label %46, label %49

46:                                               ; preds = %42
  %47 = load i32, ptr %7, align 4
  %48 = call ptr @__errno_location() #8
  store i32 %47, ptr %48, align 4
  call void (ptr, ...) @fatal_abort(ptr noundef @.str.7, ptr noundef @__func__.acct_gather_energy_fini) #9
  unreachable

49:                                               ; preds = %42
  call void @llvm.lifetime.end.p0(i64 4, ptr %7) #7
  br label %50

50:                                               ; preds = %49
  br label %51

51:                                               ; preds = %50
  br label %52

52:                                               ; preds = %51
  call void @llvm.lifetime.start.p0(i64 4, ptr %8) #7
  %53 = load ptr, ptr @profile_timer, align 8
  %54 = getelementptr inbounds nuw %struct.acct_gather_profile_timer_t, ptr %53, i32 0, i32 3
  %55 = call i32 @pthread_mutex_lock(ptr noundef %54) #7
  store i32 %55, ptr %8, align 4
  %56 = load i32, ptr %8, align 4
  %57 = icmp ne i32 %56, 0
  br i1 %57, label %58, label %61

58:                                               ; preds = %52
  %59 = load i32, ptr %8, align 4
  %60 = call ptr @__errno_location() #8
  store i32 %59, ptr %60, align 4
  call void (ptr, ...) @fatal_abort(ptr noundef @.str.1, ptr noundef @__func__.acct_gather_energy_fini) #9
  unreachable

61:                                               ; preds = %52
  call void @llvm.lifetime.end.p0(i64 4, ptr %8) #7
  br label %62

62:                                               ; preds = %61
  br label %63

63:                                               ; preds = %62
  br label %64

64:                                               ; preds = %63
  call void @llvm.lifetime.start.p0(i64 4, ptr %9) #7
  %65 = load ptr, ptr @profile_timer, align 8
  %66 = getelementptr inbounds nuw %struct.acct_gather_profile_timer_t, ptr %65, i32 0, i32 2
  %67 = call i32 @pthread_cond_signal(ptr noundef %66) #7
  store i32 %67, ptr %9, align 4
  %68 = load i32, ptr %9, align 4
  %69 = icmp ne i32 %68, 0
  br i1 %69, label %70, label %74

70:                                               ; preds = %64
  %71 = load i32, ptr %9, align 4
  %72 = call ptr @__errno_location() #8
  store i32 %71, ptr %72, align 4
  %73 = call i32 (ptr, ...) @error(ptr noundef @.str.9, ptr noundef @.str.3, i32 noundef 199, ptr noundef @__func__.acct_gather_energy_fini)
  br label %74

74:                                               ; preds = %70, %64
  call void @llvm.lifetime.end.p0(i64 4, ptr %9) #7
  br label %75

75:                                               ; preds = %74
  br label %76

76:                                               ; preds = %75
  br label %77

77:                                               ; preds = %76
  call void @llvm.lifetime.start.p0(i64 4, ptr %10) #7
  %78 = load ptr, ptr @profile_timer, align 8
  %79 = getelementptr inbounds nuw %struct.acct_gather_profile_timer_t, ptr %78, i32 0, i32 3
  %80 = call i32 @pthread_mutex_unlock(ptr noundef %79) #7
  store i32 %80, ptr %10, align 4
  %81 = load i32, ptr %10, align 4
  %82 = icmp ne i32 %81, 0
  br i1 %82, label %83, label %86

83:                                               ; preds = %77
  %84 = load i32, ptr %10, align 4
  %85 = call ptr @__errno_location() #8
  store i32 %84, ptr %85, align 4
  call void (ptr, ...) @fatal_abort(ptr noundef @.str.7, ptr noundef @__func__.acct_gather_energy_fini) #9
  unreachable

86:                                               ; preds = %77
  call void @llvm.lifetime.end.p0(i64 4, ptr %10) #7
  br label %87

87:                                               ; preds = %86
  br label %88

88:                                               ; preds = %87
  br label %89

89:                                               ; preds = %88
  call void @llvm.lifetime.start.p0(i64 4, ptr %11) #7
  store i32 0, ptr %11, align 4
  %90 = load i64, ptr @watch_node_thread_id, align 8
  %91 = icmp ne i64 %90, 0
  br i1 %91, label %92, label %95

92:                                               ; preds = %89
  %93 = load i64, ptr @watch_node_thread_id, align 8
  %94 = call i32 @pthread_join(i64 noundef %93, ptr noundef null)
  store i32 %94, ptr %11, align 4
  store i64 0, ptr @watch_node_thread_id, align 8
  br label %95

95:                                               ; preds = %92, %89
  %96 = load i32, ptr %11, align 4
  %97 = icmp ne i32 %96, 0
  br i1 %97, label %98, label %102

98:                                               ; preds = %95
  %99 = load i32, ptr %11, align 4
  %100 = call ptr @__errno_location() #8
  store i32 %99, ptr %100, align 4
  %101 = call i32 (ptr, ...) @error(ptr noundef @.str.10, ptr noundef @__func__.acct_gather_energy_fini)
  br label %102

102:                                              ; preds = %98, %95
  call void @llvm.lifetime.end.p0(i64 4, ptr %11) #7
  br label %103

103:                                              ; preds = %102
  br label %104

104:                                              ; preds = %103
  store i64 0, ptr @watch_node_thread_id, align 8
  br label %105

105:                                              ; preds = %104
  call void @llvm.lifetime.start.p0(i64 4, ptr %12) #7
  %106 = call i32 @pthread_mutex_lock(ptr noundef @g_context_lock) #7
  store i32 %106, ptr %12, align 4
  %107 = load i32, ptr %12, align 4
  %108 = icmp ne i32 %107, 0
  br i1 %108, label %109, label %112

109:                                              ; preds = %105
  %110 = load i32, ptr %12, align 4
  %111 = call ptr @__errno_location() #8
  store i32 %110, ptr %111, align 4
  call void (ptr, ...) @fatal_abort(ptr noundef @.str.1, ptr noundef @__func__.acct_gather_energy_fini) #9
  unreachable

112:                                              ; preds = %105
  call void @llvm.lifetime.end.p0(i64 4, ptr %12) #7
  br label %113

113:                                              ; preds = %112
  br label %114

114:                                              ; preds = %113
  br label %115

115:                                              ; preds = %114, %38
  call void @llvm.lifetime.start.p0(i64 4, ptr %13) #7
  store i32 0, ptr %13, align 4
  br label %116

116:                                              ; preds = %159, %115
  %117 = load i32, ptr %13, align 4
  %118 = load i32, ptr @g_context_num, align 4
  %119 = icmp slt i32 %117, %118
  br i1 %119, label %121, label %120

120:                                              ; preds = %116
  store i32 18, ptr %6, align 4
  call void @llvm.lifetime.end.p0(i64 4, ptr %13) #7
  br label %162

121:                                              ; preds = %116
  %122 = load ptr, ptr @g_context, align 8
  %123 = load i32, ptr %13, align 4
  %124 = sext i32 %123 to i64
  %125 = getelementptr inbounds ptr, ptr %122, i64 %124
  %126 = load ptr, ptr %125, align 8
  %127 = icmp ne ptr %126, null
  br i1 %127, label %129, label %128

128:                                              ; preds = %121
  br label %159

129:                                              ; preds = %121
  %130 = load ptr, ptr @g_context, align 8
  %131 = load i32, ptr %13, align 4
  %132 = sext i32 %131 to i64
  %133 = getelementptr inbounds ptr, ptr %130, i64 %132
  %134 = load ptr, ptr %133, align 8
  %135 = call i32 @plugin_context_destroy(ptr noundef %134)
  store i32 %135, ptr %2, align 4
  %136 = load i32, ptr %2, align 4
  %137 = icmp ne i32 %136, 0
  br i1 %137, label %138, label %158

138:                                              ; preds = %129
  br label %139

139:                                              ; preds = %138
  br label %140

140:                                              ; preds = %139
  %141 = call i32 @get_log_level()
  %142 = icmp sge i32 %141, 5
  br i1 %142, label %143, label %153

143:                                              ; preds = %140
  %144 = load ptr, ptr @g_context, align 8
  %145 = load i32, ptr %13, align 4
  %146 = sext i32 %145 to i64
  %147 = getelementptr inbounds ptr, ptr %144, i64 %146
  %148 = load ptr, ptr %147, align 8
  %149 = getelementptr inbounds nuw %struct.plugin_context_t, ptr %148, i32 0, i32 2
  %150 = load ptr, ptr %149, align 8
  %151 = load i32, ptr %2, align 4
  %152 = call ptr @slurm_strerror(i32 noundef %151)
  call void (i32, ptr, ...) @log_var(i32 noundef 5, ptr noundef @.str.11, ptr noundef @__func__.acct_gather_energy_fini, ptr noundef %150, ptr noundef %152)
  br label %153

153:                                              ; preds = %143, %140
  br label %154

154:                                              ; preds = %153
  br label %155

155:                                              ; preds = %154
  br label %156

156:                                              ; preds = %155
  br label %157

157:                                              ; preds = %156
  store i32 -1, ptr %3, align 4
  br label %158

158:                                              ; preds = %157, %129
  br label %159

159:                                              ; preds = %158, %128
  %160 = load i32, ptr %13, align 4
  %161 = add nsw i32 %160, 1
  store i32 %161, ptr %13, align 4
  br label %116, !llvm.loop !13

162:                                              ; preds = %120
  call void @slurm_xfree(ptr noundef @ops)
  call void @slurm_xfree(ptr noundef @g_context)
  store i32 -1, ptr @g_context_num, align 4
  br label %163

163:                                              ; preds = %162
  call void @llvm.lifetime.start.p0(i64 4, ptr %14) #7
  %164 = call i32 @pthread_mutex_unlock(ptr noundef @g_context_lock) #7
  store i32 %164, ptr %14, align 4
  %165 = load i32, ptr %14, align 4
  %166 = icmp ne i32 %165, 0
  br i1 %166, label %167, label %170

167:                                              ; preds = %163
  %168 = load i32, ptr %14, align 4
  %169 = call ptr @__errno_location() #8
  store i32 %168, ptr %169, align 4
  call void (ptr, ...) @fatal_abort(ptr noundef @.str.7, ptr noundef @__func__.acct_gather_energy_fini) #9
  unreachable

170:                                              ; preds = %163
  call void @llvm.lifetime.end.p0(i64 4, ptr %14) #7
  br label %171

171:                                              ; preds = %170
  br label %172

172:                                              ; preds = %171
  %173 = load i32, ptr %3, align 4
  store i32 %173, ptr %1, align 4
  store i32 1, ptr %6, align 4
  br label %174

174:                                              ; preds = %172, %37
  call void @llvm.lifetime.end.p0(i64 4, ptr %3) #7
  call void @llvm.lifetime.end.p0(i64 4, ptr %2) #7
  %175 = load i32, ptr %1, align 4
  ret i32 %175
}