; Function Attrs: nounwind uwtable
define dso_local range(i32 -1, 1) i32 @acct_gather_energy_fini() local_unnamed_addr #0 {
  %1 = tail call i32 @pthread_mutex_lock(ptr noundef nonnull @g_context_lock) #8
  %.not = icmp eq i32 %1, 0
  br i1 %.not, label %4, label %2

2:                                                ; preds = %0
  %3 = tail call ptr @__errno_location() #9
  store i32 %1, ptr %3, align 4
  tail call void (ptr, ...) @fatal_abort(ptr noundef nonnull @.str.1, ptr noundef nonnull @__func__.acct_gather_energy_fini) #10
  unreachable

4:                                                ; preds = %0
  %.b41 = load i1, ptr @init_run, align 1
  br i1 %.b41, label %9, label %5

5:                                                ; preds = %4
  %6 = tail call i32 @pthread_mutex_unlock(ptr noundef nonnull @g_context_lock) #8
  %.not42 = icmp eq i32 %6, 0
  br i1 %.not42, label %63, label %7

7:                                                ; preds = %5
  %8 = tail call ptr @__errno_location() #9
  store i32 %6, ptr %8, align 4
  tail call void (ptr, ...) @fatal_abort(ptr noundef nonnull @.str.7, ptr noundef nonnull @__func__.acct_gather_energy_fini) #10
  unreachable

9:                                                ; preds = %4
  store i1 false, ptr @init_run, align 1
  %10 = load i64, ptr @watch_node_thread_id, align 8
  %.not43 = icmp eq i64 %10, 0
  br i1 %.not43, label %38, label %11

11:                                               ; preds = %9
  %12 = tail call i32 @pthread_mutex_unlock(ptr noundef nonnull @g_context_lock) #8
  %.not44 = icmp eq i32 %12, 0
  br i1 %.not44, label %15, label %13

13:                                               ; preds = %11
  %14 = tail call ptr @__errno_location() #9
  store i32 %12, ptr %14, align 4
  tail call void (ptr, ...) @fatal_abort(ptr noundef nonnull @.str.7, ptr noundef nonnull @__func__.acct_gather_energy_fini) #10
  unreachable

15:                                               ; preds = %11
  %16 = tail call i32 @pthread_mutex_lock(ptr noundef nonnull getelementptr inbounds nuw (i8, ptr @acct_gather_profile_timer, i64 64)) #8
  %.not45 = icmp eq i32 %16, 0
  br i1 %.not45, label %19, label %17

17:                                               ; preds = %15
  %18 = tail call ptr @__errno_location() #9
  store i32 %16, ptr %18, align 4
  tail call void (ptr, ...) @fatal_abort(ptr noundef nonnull @.str.1, ptr noundef nonnull @__func__.acct_gather_energy_fini) #10
  unreachable

19:                                               ; preds = %15
  %20 = tail call i32 @pthread_cond_signal(ptr noundef nonnull getelementptr inbounds nuw (i8, ptr @acct_gather_profile_timer, i64 16)) #8
  %.not46 = icmp eq i32 %20, 0
  br i1 %.not46, label %24, label %21

21:                                               ; preds = %19
  %22 = tail call ptr @__errno_location() #9
  store i32 %20, ptr %22, align 4
  %23 = tail call i32 (ptr, ...) @error(ptr noundef nonnull @.str.9, ptr noundef nonnull @.str.3, i32 noundef 199, ptr noundef nonnull @__func__.acct_gather_energy_fini) #8
  br label %24

24:                                               ; preds = %21, %19
  %25 = tail call i32 @pthread_mutex_unlock(ptr noundef nonnull getelementptr inbounds nuw (i8, ptr @acct_gather_profile_timer, i64 64)) #8
  %.not47 = icmp eq i32 %25, 0
  br i1 %.not47, label %28, label %26

26:                                               ; preds = %24
  %27 = tail call ptr @__errno_location() #9
  store i32 %25, ptr %27, align 4
  tail call void (ptr, ...) @fatal_abort(ptr noundef nonnull @.str.7, ptr noundef nonnull @__func__.acct_gather_energy_fini) #10
  unreachable

28:                                               ; preds = %24
  %29 = load i64, ptr @watch_node_thread_id, align 8
  %.not48 = icmp eq i64 %29, 0
  br i1 %.not48, label %.thread, label %30

30:                                               ; preds = %28
  %31 = tail call i32 @pthread_join(i64 noundef %29, ptr noundef null) #8
  store i64 0, ptr @watch_node_thread_id, align 8
  %.not49 = icmp eq i32 %31, 0
  br i1 %.not49, label %.thread, label %32

32:                                               ; preds = %30
  %33 = tail call ptr @__errno_location() #9
  store i32 %31, ptr %33, align 4
  %34 = tail call i32 (ptr, ...) @error(ptr noundef nonnull @.str.10, ptr noundef nonnull @__func__.acct_gather_energy_fini) #8
  br label %.thread

.thread:                                          ; preds = %28, %32, %30
  store i64 0, ptr @watch_node_thread_id, align 8
  %35 = tail call i32 @pthread_mutex_lock(ptr noundef nonnull @g_context_lock) #8
  %.not50 = icmp eq i32 %35, 0
  br i1 %.not50, label %38, label %36

36:                                               ; preds = %.thread
  %37 = tail call ptr @__errno_location() #9
  store i32 %35, ptr %37, align 4
  tail call void (ptr, ...) @fatal_abort(ptr noundef nonnull @.str.1, ptr noundef nonnull @__func__.acct_gather_energy_fini) #10
  unreachable

38:                                               ; preds = %.thread, %9
  %39 = load i32, ptr @g_context_num, align 4
  %40 = icmp sgt i32 %39, 0
  br i1 %40, label %.lr.ph, label %._crit_edge

._crit_edge:                                      ; preds = %57, %38
  %.028.lcssa = phi i32 [ 0, %38 ], [ %.1, %57 ]
  tail call void @slurm_xfree(ptr noundef nonnull @ops) #8
  tail call void @slurm_xfree(ptr noundef nonnull @g_context) #8
  store i32 -1, ptr @g_context_num, align 4
  %41 = tail call i32 @pthread_mutex_unlock(ptr noundef nonnull @g_context_lock) #8
  %.not51 = icmp eq i32 %41, 0
  br i1 %.not51, label %63, label %61

.lr.ph:                                           ; preds = %38, %57
  %indvars.iv = phi i64 [ %indvars.iv.next, %57 ], [ 0, %38 ]
  %.02856 = phi i32 [ %.1, %57 ], [ 0, %38 ]
  %42 = load ptr, ptr @g_context, align 8
  %43 = getelementptr inbounds nuw ptr, ptr %42, i64 %indvars.iv
  %44 = load ptr, ptr %43, align 8
  %.not52 = icmp eq ptr %44, null
  br i1 %.not52, label %57, label %45

45:                                               ; preds = %.lr.ph
  %46 = tail call i32 @plugin_context_destroy(ptr noundef nonnull %44) #8
  %.not53 = icmp eq i32 %46, 0
  br i1 %.not53, label %57, label %47

47:                                               ; preds = %45
  %48 = tail call i32 @get_log_level() #8
  %49 = icmp sgt i32 %48, 4
  br i1 %49, label %50, label %57

50:                                               ; preds = %47
  %51 = load ptr, ptr @g_context, align 8
  %52 = getelementptr inbounds nuw ptr, ptr %51, i64 %indvars.iv
  %53 = load ptr, ptr %52, align 8
  %54 = getelementptr inbounds nuw i8, ptr %53, i64 16
  %55 = load ptr, ptr %54, align 8
  %56 = tail call ptr @slurm_strerror(i32 noundef %46) #8
  tail call void (i32, ptr, ...) @log_var(i32 noundef 5, ptr noundef nonnull @.str.11, ptr noundef nonnull @__func__.acct_gather_energy_fini, ptr noundef %55, ptr noundef %56) #8
  br label %57

57:                                               ; preds = %47, %50, %45, %.lr.ph
  %.1 = phi i32 [ %.02856, %45 ], [ %.02856, %.lr.ph ], [ -1, %50 ], [ -1, %47 ]
  %indvars.iv.next = add nuw nsw i64 %indvars.iv, 1
  %58 = load i32, ptr @g_context_num, align 4
  %59 = sext i32 %58 to i64
  %60 = icmp slt i64 %indvars.iv.next, %59
  br i1 %60, label %.lr.ph, label %._crit_edge, !llvm.loop !11

61:                                               ; preds = %._crit_edge
  %62 = tail call ptr @__errno_location() #9
  store i32 %41, ptr %62, align 4
  tail call void (ptr, ...) @fatal_abort(ptr noundef nonnull @.str.7, ptr noundef nonnull @__func__.acct_gather_energy_fini) #10
  unreachable

63:                                               ; preds = %._crit_edge, %5
  %.0 = phi i32 [ 0, %5 ], [ %.028.lcssa, %._crit_edge ]
  ret i32 %.0
}